; ModuleID = '17/292.c'
source_filename = "17/292.c"
target datalayout = "e-m:e-p270:32:32-p271:32:32-p272:64:64-i64:64-f80:128-n8:16:32:64-S128"
target triple = "x86_64-pc-linux-gnu"

@.str = private unnamed_addr constant [3 x i8] c"%s\00", align 1
@.str.1 = private unnamed_addr constant [7 x i8] c"%s\0A%s\0A\00", align 1

; Function Attrs: noinline nounwind uwtable
define dso_local void @main() #0 {
  %1 = alloca i32, align 4
  %2 = alloca i32, align 4
  %3 = alloca [109 x i32], align 16
  %4 = alloca [110 x i8], align 16
  %5 = alloca [110 x i8], align 16
  br label %6

6:                                                ; preds = %121, %0
  %7 = getelementptr inbounds [110 x i8], [110 x i8]* %4, i64 0, i64 0
  %8 = call i32 (i8*, ...) @__isoc99_scanf(i8* getelementptr inbounds ([3 x i8], [3 x i8]* @.str, i64 0, i64 0), i8* %7)
  %9 = icmp ne i32 %8, -1
  br i1 %9, label %10, label %125

10:                                               ; preds = %6
  store i32 0, i32* %1, align 4
  br label %11

11:                                               ; preds = %18, %10
  %12 = load i32, i32* %1, align 4
  %13 = icmp slt i32 %12, 109
  br i1 %13, label %14, label %21

14:                                               ; preds = %11
  %15 = load i32, i32* %1, align 4
  %16 = sext i32 %15 to i64
  %17 = getelementptr inbounds [109 x i32], [109 x i32]* %3, i64 0, i64 %16
  store i32 0, i32* %17, align 4
  br label %18

18:                                               ; preds = %14
  %19 = load i32, i32* %1, align 4
  %20 = add nsw i32 %19, 1
  store i32 %20, i32* %1, align 4
  br label %11

21:                                               ; preds = %11
  %22 = getelementptr inbounds [110 x i8], [110 x i8]* %5, i64 0, i64 0
  %23 = getelementptr inbounds [110 x i8], [110 x i8]* %4, i64 0, i64 0
  %24 = call i8* @strcpy(i8* %22, i8* %23) #4
  store i32 0, i32* %1, align 4
  store i32 0, i32* %2, align 4
  br label %25

25:                                               ; preds = %85, %21
  %26 = load i32, i32* %1, align 4
  %27 = sext i32 %26 to i64
  %28 = getelementptr inbounds [110 x i8], [110 x i8]* %4, i64 0, i64 0
  %29 = call i64 @strlen(i8* %28) #5
  %30 = icmp ult i64 %27, %29
  br i1 %30, label %31, label %88

31:                                               ; preds = %25
  %32 = load i32, i32* %1, align 4
  %33 = sext i32 %32 to i64
  %34 = getelementptr inbounds [110 x i8], [110 x i8]* %4, i64 0, i64 %33
  %35 = load i8, i8* %34, align 1
  %36 = sext i8 %35 to i32
  %37 = icmp eq i32 %36, 40
  br i1 %37, label %38, label %44

38:                                               ; preds = %31
  %39 = load i32, i32* %1, align 4
  %40 = load i32, i32* %2, align 4
  %41 = add nsw i32 %40, 1
  store i32 %41, i32* %2, align 4
  %42 = sext i32 %40 to i64
  %43 = getelementptr inbounds [109 x i32], [109 x i32]* %3, i64 0, i64 %42
  store i32 %39, i32* %43, align 4
  br label %44

44:                                               ; preds = %38, %31
  %45 = load i32, i32* %1, align 4
  %46 = sext i32 %45 to i64
  %47 = getelementptr inbounds [110 x i8], [110 x i8]* %4, i64 0, i64 %46
  %48 = load i8, i8* %47, align 1
  %49 = sext i8 %48 to i32
  %50 = icmp eq i32 %49, 41
  br i1 %50, label %51, label %66

51:                                               ; preds = %44
  %52 = load i32, i32* %2, align 4
  %53 = icmp sgt i32 %52, 0
  br i1 %53, label %54, label %66

54:                                               ; preds = %51
  %55 = load i32, i32* %1, align 4
  %56 = sext i32 %55 to i64
  %57 = getelementptr inbounds [110 x i8], [110 x i8]* %4, i64 0, i64 %56
  store i8 32, i8* %57, align 1
  %58 = load i32, i32* %2, align 4
  %59 = add nsw i32 %58, -1
  store i32 %59, i32* %2, align 4
  %60 = sub nsw i32 %58, 1
  %61 = sext i32 %60 to i64
  %62 = getelementptr inbounds [109 x i32], [109 x i32]* %3, i64 0, i64 %61
  %63 = load i32, i32* %62, align 4
  %64 = sext i32 %63 to i64
  %65 = getelementptr inbounds [110 x i8], [110 x i8]* %4, i64 0, i64 %64
  store i8 32, i8* %65, align 1
  br label %66

66:                                               ; preds = %54, %51, %44
  %67 = load i32, i32* %1, align 4
  %68 = sext i32 %67 to i64
  %69 = getelementptr inbounds [110 x i8], [110 x i8]* %4, i64 0, i64 %68
  %70 = load i8, i8* %69, align 1
  %71 = sext i8 %70 to i32
  %72 = icmp ne i32 %71, 40
  br i1 %72, label %73, label %84

73:                                               ; preds = %66
  %74 = load i32, i32* %1, align 4
  %75 = sext i32 %74 to i64
  %76 = getelementptr inbounds [110 x i8], [110 x i8]* %4, i64 0, i64 %75
  %77 = load i8, i8* %76, align 1
  %78 = sext i8 %77 to i32
  %79 = icmp ne i32 %78, 41
  br i1 %79, label %80, label %84

80:                                               ; preds = %73
  %81 = load i32, i32* %1, align 4
  %82 = sext i32 %81 to i64
  %83 = getelementptr inbounds [110 x i8], [110 x i8]* %4, i64 0, i64 %82
  store i8 32, i8* %83, align 1
  br label %84

84:                                               ; preds = %80, %73, %66
  br label %85

85:                                               ; preds = %84
  %86 = load i32, i32* %1, align 4
  %87 = add nsw i32 %86, 1
  store i32 %87, i32* %1, align 4
  br label %25

88:                                               ; preds = %25
  store i32 0, i32* %1, align 4
  br label %89

89:                                               ; preds = %118, %88
  %90 = load i32, i32* %1, align 4
  %91 = sext i32 %90 to i64
  %92 = getelementptr inbounds [110 x i8], [110 x i8]* %4, i64 0, i64 0
  %93 = call i64 @strlen(i8* %92) #5
  %94 = icmp ult i64 %91, %93
  br i1 %94, label %95, label %121

95:                                               ; preds = %89
  %96 = load i32, i32* %1, align 4
  %97 = sext i32 %96 to i64
  %98 = getelementptr inbounds [110 x i8], [110 x i8]* %4, i64 0, i64 %97
  %99 = load i8, i8* %98, align 1
  %100 = sext i8 %99 to i32
  %101 = icmp eq i32 %100, 40
  br i1 %101, label %102, label %106

102:                                              ; preds = %95
  %103 = load i32, i32* %1, align 4
  %104 = sext i32 %103 to i64
  %105 = getelementptr inbounds [110 x i8], [110 x i8]* %4, i64 0, i64 %104
  store i8 36, i8* %105, align 1
  br label %106

106:                                              ; preds = %102, %95
  %107 = load i32, i32* %1, align 4
  %108 = sext i32 %107 to i64
  %109 = getelementptr inbounds [110 x i8], [110 x i8]* %4, i64 0, i64 %108
  %110 = load i8, i8* %109, align 1
  %111 = sext i8 %110 to i32
  %112 = icmp eq i32 %111, 41
  br i1 %112, label %113, label %117

113:                                              ; preds = %106
  %114 = load i32, i32* %1, align 4
  %115 = sext i32 %114 to i64
  %116 = getelementptr inbounds [110 x i8], [110 x i8]* %4, i64 0, i64 %115
  store i8 63, i8* %116, align 1
  br label %117

117:                                              ; preds = %113, %106
  br label %118

118:                                              ; preds = %117
  %119 = load i32, i32* %1, align 4
  %120 = add nsw i32 %119, 1
  store i32 %120, i32* %1, align 4
  br label %89

121:                                              ; preds = %89
  %122 = getelementptr inbounds [110 x i8], [110 x i8]* %5, i64 0, i64 0
  %123 = getelementptr inbounds [110 x i8], [110 x i8]* %4, i64 0, i64 0
  %124 = call i32 (i8*, ...) @printf(i8* getelementptr inbounds ([7 x i8], [7 x i8]* @.str.1, i64 0, i64 0), i8* %122, i8* %123)
  br label %6

125:                                              ; preds = %6
  ret void
}

declare dso_local i32 @__isoc99_scanf(i8*, ...) #1

; Function Attrs: nounwind
declare dso_local i8* @strcpy(i8*, i8*) #2

; Function Attrs: nounwind readonly
declare dso_local i64 @strlen(i8*) #3

declare dso_local i32 @printf(i8*, ...) #1


!llvm.module.flags = !{!0}
!llvm.ident = !{!1}

!0 = !{i32 1, !"wchar_size", i32 4}
!1 = !{!"clang version 10.0.0-4ubuntu1 "}
